target datalayout = "e-m:e-p270:32:32-p271:32:32-p272:64:64-i64:64-i128:128-f80:128-n8:16:32:64-S128"
target triple = "x86_64-pc-linux-gnu"

%"class.open3d::utility::CompilerInfo" = type { i8 }

@_ZZN6open3d7utility12CompilerInfo11GetInstanceEvE8instance = internal global %"class.open3d::utility::CompilerInfo" zeroinitializer, align 1
@_ZGVZN6open3d7utility12CompilerInfo11GetInstanceEvE8instance = internal global i64 0, align 8
@_ZN6open3d7utility12CompilerInfoC1Ev = unnamed_addr alias void (ptr), ptr @_ZN6open3d7utility12CompilerInfoC2Ev

; Function Attrs: mustprogress ssp uwtable
define noundef nonnull align 1 dereferenceable(1) ptr @_ZN6open3d7utility12CompilerInfo11GetInstanceEv() #1 align 2 personality ptr @__gxx_personality_v0 {
  %1 = alloca ptr, align 8
  %2 = alloca i32, align 4
  %3 = load atomic i8, ptr @_ZGVZN6open3d7utility12CompilerInfo11GetInstanceEvE8instance acquire, align 8
  %4 = icmp eq i8 %3, 0
  br i1 %4, label %5, label %10, !prof !9

5:                                                ; preds = %0
  %6 = call i32 @__cxa_guard_acquire(ptr @_ZGVZN6open3d7utility12CompilerInfo11GetInstanceEvE8instance) #2
  %7 = icmp ne i32 %6, 0
  br i1 %7, label %8, label %10

8:                                                ; preds = %5
  invoke void @_ZN6open3d7utility12CompilerInfoC1Ev(ptr noundef nonnull align 1 dereferenceable(1) @_ZZN6open3d7utility12CompilerInfo11GetInstanceEvE8instance)
          to label %9 unwind label %11

9:                                                ; preds = %8
  call void @__cxa_guard_release(ptr @_ZGVZN6open3d7utility12CompilerInfo11GetInstanceEvE8instance) #2
  br label %10

10:                                               ; preds = %9, %5, %0
  ret ptr @_ZZN6open3d7utility12CompilerInfo11GetInstanceEvE8instance

11:                                               ; preds = %8
  %12 = landingpad { ptr, i32 }
          cleanup
  %13 = extractvalue { ptr, i32 } %12, 0
  store ptr %13, ptr %1, align 8
  %14 = extractvalue { ptr, i32 } %12, 1
  store i32 %14, ptr %2, align 4
  call void @__cxa_guard_abort(ptr @_ZGVZN6open3d7utility12CompilerInfo11GetInstanceEvE8instance) #2
  br label %15

15:                                               ; preds = %11
  %16 = load ptr, ptr %1, align 8
  %17 = load i32, ptr %2, align 4
  %18 = insertvalue { ptr, i32 } poison, ptr %16, 0
  %19 = insertvalue { ptr, i32 } %18, i32 %17, 1
  resume { ptr, i32 } %19
}