; Function Attrs: mustprogress ssp uwtable
define noundef nonnull align 1 dereferenceable(1) ptr @_ZN6open3d7utility12CompilerInfo11GetInstanceEv() local_unnamed_addr #1 align 2 personality ptr @__gxx_personality_v0 {
  %1 = load atomic i8, ptr @_ZGVZN6open3d7utility12CompilerInfo11GetInstanceEvE8instance acquire, align 8
  %2 = icmp eq i8 %1, 0
  br i1 %2, label %3, label %7, !prof !4

3:                                                ; preds = %0
  %4 = tail call i32 @__cxa_guard_acquire(ptr nonnull @_ZGVZN6open3d7utility12CompilerInfo11GetInstanceEvE8instance) #30
  %.not = icmp eq i32 %4, 0
  br i1 %.not, label %7, label %5

5:                                                ; preds = %3
  invoke void @_ZN6open3d7utility12CompilerInfoC1Ev(ptr noundef nonnull align 1 dereferenceable(1) @_ZZN6open3d7utility12CompilerInfo11GetInstanceEvE8instance)
          to label %6 unwind label %8

6:                                                ; preds = %5
  tail call void @__cxa_guard_release(ptr nonnull @_ZGVZN6open3d7utility12CompilerInfo11GetInstanceEvE8instance) #30
  br label %7

7:                                                ; preds = %6, %3, %0
  ret ptr @_ZZN6open3d7utility12CompilerInfo11GetInstanceEvE8instance

8:                                                ; preds = %5
  %9 = landingpad { ptr, i32 }
          cleanup
  tail call void @__cxa_guard_abort(ptr nonnull @_ZGVZN6open3d7utility12CompilerInfo11GetInstanceEvE8instance) #30
  resume { ptr, i32 } %9
}